target datalayout = "e-m:e-p270:32:32-p271:32:32-p272:64:64-i64:64-i128:128-f80:128-n8:16:32:64-S128"
target triple = "x86_64-unknown-linux-gnu"

@.str.6 = private unnamed_addr constant [160 x i8] c"generated/home/dtcxzyw/WorkSpace/Projects/compilers/llvm-opt-benchmark/bench/grpc/grpc/src/core/lib/security/security_connector/fake/fake_security_connector.cc\00", align 1
@.str.24 = private unnamed_addr constant [18 x i8] c"target != nullptr\00", align 1
@.str.25 = private unnamed_addr constant [2 x i8] c",\00", align 1

; Function Attrs: mustprogress uwtable
define internal noundef zeroext i1 @_ZNK12_GLOBAL__N_136grpc_fake_channel_security_connector17fake_check_targetEPKcS2_(ptr noundef nonnull align 8 dereferenceable(152) %this, ptr noundef %target, ptr noundef %set_str) #4 align 2 {
entry:
  %this.addr = alloca ptr, align 8
  %target.addr = alloca ptr, align 8
  %set_str.addr = alloca ptr, align 8
  %set = alloca ptr, align 8
  %set_size = alloca i64, align 8
  %found = alloca i8, align 1
  %i = alloca i64, align 8
  %i8 = alloca i64, align 8
  store ptr %this, ptr %this.addr, align 8
  store ptr %target, ptr %target.addr, align 8
  store ptr %set_str, ptr %set_str.addr, align 8
  br label %do.body

do.body:                                          ; preds = %entry
  %0 = load ptr, ptr %target.addr, align 8
  %cmp = icmp ne ptr %0, null
  %lnot = xor i1 %cmp, true
  br i1 %lnot, label %if.then, label %if.end

if.then:                                          ; preds = %do.body
  call void @gpr_assertion_failed(ptr noundef @.str.6, i32 noundef 145, ptr noundef @.str.24) #18
  unreachable

if.end:                                           ; preds = %do.body
  br label %do.end

do.end:                                           ; preds = %if.end
  store ptr null, ptr %set, align 8
  store i64 0, ptr %set_size, align 8
  %1 = load ptr, ptr %set_str.addr, align 8
  call void @_Z16gpr_string_splitPKcS0_PPPcPm(ptr noundef %1, ptr noundef @.str.25, ptr noundef %set, ptr noundef %set_size)
  store i8 0, ptr %found, align 1
  store i64 0, ptr %i, align 8
  br label %for.cond

for.cond:                                         ; preds = %for.inc, %do.end
  %2 = load i64, ptr %i, align 8
  %3 = load i64, ptr %set_size, align 8
  %cmp2 = icmp ult i64 %2, %3
  br i1 %cmp2, label %for.body, label %for.end

for.body:                                         ; preds = %for.cond
  %4 = load ptr, ptr %set, align 8
  %5 = load i64, ptr %i, align 8
  %arrayidx = getelementptr inbounds ptr, ptr %4, i64 %5
  %6 = load ptr, ptr %arrayidx, align 8
  %cmp3 = icmp ne ptr %6, null
  br i1 %cmp3, label %land.lhs.true, label %if.end7

land.lhs.true:                                    ; preds = %for.body
  %7 = load ptr, ptr %target.addr, align 8
  %8 = load ptr, ptr %set, align 8
  %9 = load i64, ptr %i, align 8
  %arrayidx4 = getelementptr inbounds ptr, ptr %8, i64 %9
  %10 = load ptr, ptr %arrayidx4, align 8
  %call = call i32 @strcmp(ptr noundef %7, ptr noundef %10) #17
  %cmp5 = icmp eq i32 %call, 0
  br i1 %cmp5, label %if.then6, label %if.end7

if.then6:                                         ; preds = %land.lhs.true
  store i8 1, ptr %found, align 1
  br label %if.end7

if.end7:                                          ; preds = %if.then6, %land.lhs.true, %for.body
  br label %for.inc

for.inc:                                          ; preds = %if.end7
  %11 = load i64, ptr %i, align 8
  %inc = add i64 %11, 1
  store i64 %inc, ptr %i, align 8
  br label %for.cond, !llvm.loop !8

for.end:                                          ; preds = %for.cond
  store i64 0, ptr %i8, align 8
  br label %for.cond9

for.cond9:                                        ; preds = %for.inc13, %for.end
  %12 = load i64, ptr %i8, align 8
  %13 = load i64, ptr %set_size, align 8
  %cmp10 = icmp ult i64 %12, %13
  br i1 %cmp10, label %for.body11, label %for.end15

for.body11:                                       ; preds = %for.cond9
  %14 = load ptr, ptr %set, align 8
  %15 = load i64, ptr %i8, align 8
  %arrayidx12 = getelementptr inbounds ptr, ptr %14, i64 %15
  %16 = load ptr, ptr %arrayidx12, align 8
  call void @gpr_free(ptr noundef %16)
  br label %for.inc13

for.inc13:                                        ; preds = %for.body11
  %17 = load i64, ptr %i8, align 8
  %inc14 = add i64 %17, 1
  store i64 %inc14, ptr %i8, align 8
  br label %for.cond9, !llvm.loop !9

for.end15:                                        ; preds = %for.cond9
  %18 = load ptr, ptr %set, align 8
  call void @gpr_free(ptr noundef %18)
  %19 = load i8, ptr %found, align 1
  %tobool = trunc i8 %19 to i1
  ret i1 %tobool
}