; Function Attrs: mustprogress uwtable
define internal fastcc noundef zeroext i1 @_ZNK12_GLOBAL__N_136grpc_fake_channel_security_connector17fake_check_targetEPKcS2_(ptr noundef readonly %target, ptr noundef %set_str) unnamed_addr #3 align 2 {
entry:
  %set = alloca ptr, align 8
  %set_size = alloca i64, align 8
  %cmp.not = icmp eq ptr %target, null
  br i1 %cmp.not, label %if.then, label %do.end

if.then:                                          ; preds = %entry
  tail call void @gpr_assertion_failed(ptr noundef nonnull @.str.6, i32 noundef 145, ptr noundef nonnull @.str.24) #23
  unreachable

do.end:                                           ; preds = %entry
  store ptr null, ptr %set, align 8
  store i64 0, ptr %set_size, align 8
  call void @_Z16gpr_string_splitPKcS0_PPPcPm(ptr noundef %set_str, ptr noundef nonnull @.str.25, ptr noundef nonnull %set, ptr noundef nonnull %set_size)
  %0 = load i64, ptr %set_size, align 8
  %cmp21.not = icmp eq i64 %0, 0
  br i1 %cmp21.not, label %for.end15, label %for.body.lr.ph

for.body.lr.ph:                                   ; preds = %do.end
  %1 = load ptr, ptr %set, align 8
  br label %for.body

for.body11.preheader:                             ; preds = %for.inc
  %2 = and i8 %found.1, 1
  %3 = icmp ne i8 %2, 0
  br label %for.body11

for.body:                                         ; preds = %for.body.lr.ph, %for.inc
  %i.03 = phi i64 [ 0, %for.body.lr.ph ], [ %inc, %for.inc ]
  %found.02 = phi i8 [ 0, %for.body.lr.ph ], [ %found.1, %for.inc ]
  %arrayidx = getelementptr inbounds ptr, ptr %1, i64 %i.03
  %4 = load ptr, ptr %arrayidx, align 8
  %cmp3.not = icmp eq ptr %4, null
  br i1 %cmp3.not, label %for.inc, label %land.lhs.true

land.lhs.true:                                    ; preds = %for.body
  %call = call i32 @strcmp(ptr noundef nonnull dereferenceable(1) %target, ptr noundef nonnull dereferenceable(1) %4) #22
  %cmp5 = icmp eq i32 %call, 0
  %spec.select = select i1 %cmp5, i8 1, i8 %found.02
  br label %for.inc

for.inc:                                          ; preds = %land.lhs.true, %for.body
  %found.1 = phi i8 [ %found.02, %for.body ], [ %spec.select, %land.lhs.true ]
  %inc = add nuw i64 %i.03, 1
  %exitcond.not = icmp eq i64 %inc, %0
  br i1 %exitcond.not, label %for.body11.preheader, label %for.body, !llvm.loop !23

for.body11:                                       ; preds = %for.body11.preheader, %for.body11
  %i8.05 = phi i64 [ %inc14, %for.body11 ], [ 0, %for.body11.preheader ]
  %5 = load ptr, ptr %set, align 8
  %arrayidx12 = getelementptr inbounds ptr, ptr %5, i64 %i8.05
  %6 = load ptr, ptr %arrayidx12, align 8
  call void @gpr_free(ptr noundef %6)
  %inc14 = add nuw i64 %i8.05, 1
  %7 = load i64, ptr %set_size, align 8
  %cmp10 = icmp ult i64 %inc14, %7
  br i1 %cmp10, label %for.body11, label %for.end15, !llvm.loop !24

for.end15:                                        ; preds = %for.body11, %do.end
  %found.0.lcssa7 = phi i1 [ false, %do.end ], [ %3, %for.body11 ]
  %8 = load ptr, ptr %set, align 8
  call void @gpr_free(ptr noundef %8)
  ret i1 %found.0.lcssa7
}